target datalayout = "e-m:e-p270:32:32-p271:32:32-p272:64:64-i64:64-i128:128-f80:128-n8:16:32:64-S128"
target triple = "x86_64-pc-linux-gnu"

%struct.AVCodecContext = type { ptr, i32, i32, ptr, i32, i32, ptr, ptr, ptr, i64, i32, i32, ptr, i32, %struct.AVRational, %struct.AVRational, %struct.AVRational, i32, i32, i32, i32, i32, %struct.AVRational, i32, i32, i32, i32, i32, i32, i32, i32, i32, i32, i32, ptr, ptr, i32, float, float, float, float, float, float, float, float, float, i32, i32, i32, i32, i32, i32, i32, i32, i32, i32, i32, i32, ptr, ptr, ptr, i32, i32, i32, i32, i32, i32, i32, i32, i32, i32, %struct.AVChannelLayout, i32, i32, i32, i32, i32, i32, i32, i32, ptr, i32, i32, i32, float, float, i32, i32, i32, i32, i32, ptr, i64, i64, float, float, i32, i32, ptr, ptr, i32, i32, i32, i32, i32, ptr, ptr, ptr, ptr, i32, i32, [8 x i64], i32, i32, i32, i32, i32, i32, i32, ptr, ptr, i32, i32, i32, i32, i32, i32, i32, i32, i32, i32, ptr, ptr, i32, i32, ptr, ptr, ptr, ptr, i32, i32, i64, i32, i32, i64, ptr, i64, ptr, i32, ptr, i32 }
%struct.AVRational = type { i32, i32 }
%struct.AVChannelLayout = type { i32, i32, %union.anon.1, ptr }
%union.anon.1 = type { i64 }
%struct.PNGEncContext = type { ptr, %struct.LLVidEncDSPContext, ptr, ptr, ptr, i32, %struct.FFZStream, [4096 x i8], i32, i32, i32, i32, i32, i32, i32, i32, i32, ptr, i32, ptr, ptr, %struct.APNGFctlChunk, ptr, i64 }
%struct.LLVidEncDSPContext = type { ptr, ptr, ptr }
%struct.FFZStream = type { %struct.z_stream_s, i32 }
%struct.z_stream_s = type { ptr, i32, i64, ptr, i32, i64, ptr, ptr, ptr, ptr, ptr, i32, i64, i64 }
%struct.APNGFctlChunk = type { i32, i32, i32, i32, i32, i16, i16, i8, i8 }

; Function Attrs: alwaysinline nounwind willreturn memory(none) uwtable
define internal i32 @av_bswap32(i32 noundef %0) #4 {
  %2 = alloca i32, align 4
  store i32 %0, ptr %2, align 4, !tbaa !50
  %3 = load i32, ptr %2, align 4, !tbaa !50
  %4 = shl i32 %3, 8
  %5 = and i32 %4, 65280
  %6 = load i32, ptr %2, align 4, !tbaa !50
  %7 = lshr i32 %6, 8
  %8 = and i32 %7, 255
  %9 = or i32 %5, %8
  %10 = shl i32 %9, 16
  %11 = load i32, ptr %2, align 4, !tbaa !50
  %12 = lshr i32 %11, 16
  %13 = shl i32 %12, 8
  %14 = and i32 %13, 65280
  %15 = load i32, ptr %2, align 4, !tbaa !50
  %16 = lshr i32 %15, 16
  %17 = lshr i32 %16, 8
  %18 = and i32 %17, 255
  %19 = or i32 %14, %18
  %20 = or i32 %10, %19
  ret i32 %20
}

; Function Attrs: alwaysinline nounwind uwtable
define internal void @bytestream_put_be32(ptr noundef %0, i32 noundef %1) #9 {
  %3 = alloca ptr, align 8
  %4 = alloca i32, align 4
  store ptr %0, ptr %3, align 8, !tbaa !141
  store i32 %1, ptr %4, align 4, !tbaa !50
  %5 = load i32, ptr %4, align 4, !tbaa !50
  %6 = call i32 @av_bswap32(i32 noundef %5) #14
  %7 = load ptr, ptr %3, align 8, !tbaa !141
  %8 = load ptr, ptr %7, align 8, !tbaa !67
  store i32 %6, ptr %8, align 1, !tbaa !64
  %9 = load ptr, ptr %3, align 8, !tbaa !141
  %10 = load ptr, ptr %9, align 8, !tbaa !67
  %11 = getelementptr inbounds i8, ptr %10, i64 4
  store ptr %11, ptr %9, align 8, !tbaa !67
  ret void
}

; Function Attrs: nounwind uwtable
define internal void @png_write_chunk(ptr noundef %0, i32 noundef %1, ptr noundef %2, i32 noundef %3) #1 {
  %5 = alloca ptr, align 8
  %6 = alloca i32, align 4
  %7 = alloca ptr, align 8
  %8 = alloca i32, align 4
  %9 = alloca ptr, align 8
  %10 = alloca i32, align 4
  %11 = alloca [4 x i8], align 1
  store ptr %0, ptr %5, align 8, !tbaa !141
  store i32 %1, ptr %6, align 4, !tbaa !50
  store ptr %2, ptr %7, align 8, !tbaa !67
  store i32 %3, ptr %8, align 4, !tbaa !50
  call void @llvm.lifetime.start.p0(i64 8, ptr %9) #13
  %12 = call ptr @av_crc_get_table(i32 noundef 4)
  store ptr %12, ptr %9, align 8, !tbaa !54
  call void @llvm.lifetime.start.p0(i64 4, ptr %10) #13
  store i32 -1, ptr %10, align 4, !tbaa !50
  call void @llvm.lifetime.start.p0(i64 4, ptr %11) #13
  %13 = load ptr, ptr %5, align 8, !tbaa !141
  %14 = load i32, ptr %8, align 4, !tbaa !50
  call void @bytestream_put_be32(ptr noundef %13, i32 noundef %14)
  %15 = load i32, ptr %6, align 4, !tbaa !50
  %16 = getelementptr inbounds [4 x i8], ptr %11, i64 0, i64 0
  store i32 %15, ptr %16, align 1, !tbaa !64
  %17 = load ptr, ptr %9, align 8, !tbaa !54
  %18 = load i32, ptr %10, align 4, !tbaa !50
  %19 = getelementptr inbounds [4 x i8], ptr %11, i64 0, i64 0
  %20 = call i32 @av_crc(ptr noundef %17, i32 noundef %18, ptr noundef %19, i64 noundef 4) #15
  store i32 %20, ptr %10, align 4, !tbaa !50
  %21 = load ptr, ptr %5, align 8, !tbaa !141
  %22 = load i32, ptr %6, align 4, !tbaa !50
  %23 = call i32 @av_bswap32(i32 noundef %22) #14
  call void @bytestream_put_be32(ptr noundef %21, i32 noundef %23)
  %24 = load i32, ptr %8, align 4, !tbaa !50
  %25 = icmp sgt i32 %24, 0
  br i1 %25, label %26, label %49

26:                                               ; preds = %4
  %27 = load ptr, ptr %9, align 8, !tbaa !54
  %28 = load i32, ptr %10, align 4, !tbaa !50
  %29 = load ptr, ptr %7, align 8, !tbaa !67
  %30 = load i32, ptr %8, align 4, !tbaa !50
  %31 = sext i32 %30 to i64
  %32 = call i32 @av_crc(ptr noundef %27, i32 noundef %28, ptr noundef %29, i64 noundef %31) #15
  store i32 %32, ptr %10, align 4, !tbaa !50
  %33 = load ptr, ptr %5, align 8, !tbaa !141
  %34 = load ptr, ptr %33, align 8, !tbaa !67
  %35 = load ptr, ptr %7, align 8, !tbaa !67
  %36 = icmp ne ptr %34, %35
  br i1 %36, label %37, label %43

37:                                               ; preds = %26
  %38 = load ptr, ptr %5, align 8, !tbaa !141
  %39 = load ptr, ptr %38, align 8, !tbaa !67
  %40 = load ptr, ptr %7, align 8, !tbaa !67
  %41 = load i32, ptr %8, align 4, !tbaa !50
  %42 = sext i32 %41 to i64
  call void @llvm.memcpy.p0.p0.i64(ptr align 1 %39, ptr align 1 %40, i64 %42, i1 false)
  br label %43

43:                                               ; preds = %37, %26
  %44 = load i32, ptr %8, align 4, !tbaa !50
  %45 = load ptr, ptr %5, align 8, !tbaa !141
  %46 = load ptr, ptr %45, align 8, !tbaa !67
  %47 = sext i32 %44 to i64
  %48 = getelementptr inbounds i8, ptr %46, i64 %47
  store ptr %48, ptr %45, align 8, !tbaa !67
  br label %49

49:                                               ; preds = %43, %4
  %50 = load ptr, ptr %5, align 8, !tbaa !141
  %51 = load i32, ptr %10, align 4, !tbaa !50
  %52 = xor i32 %51, -1
  call void @bytestream_put_be32(ptr noundef %50, i32 noundef %52)
  call void @llvm.lifetime.end.p0(i64 4, ptr %11) #13
  call void @llvm.lifetime.end.p0(i64 4, ptr %10) #13
  call void @llvm.lifetime.end.p0(i64 8, ptr %9) #13
  ret void
}

; Function Attrs: nounwind uwtable
define internal void @png_write_image_data(ptr noundef %0, ptr noundef %1, i32 noundef %2) #1 {
  %4 = alloca ptr, align 8
  %5 = alloca ptr, align 8
  %6 = alloca i32, align 4
  %7 = alloca ptr, align 8
  %8 = alloca ptr, align 8
  %9 = alloca i32, align 4
  %10 = alloca i32, align 4
  store ptr %0, ptr %4, align 8, !tbaa !4
  store ptr %1, ptr %5, align 8, !tbaa !67
  store i32 %2, ptr %6, align 4, !tbaa !50
  call void @llvm.lifetime.start.p0(i64 8, ptr %7) #13
  %11 = load ptr, ptr %4, align 8, !tbaa !4
  %12 = getelementptr inbounds nuw %struct.AVCodecContext, ptr %11, i32 0, i32 6
  %13 = load ptr, ptr %12, align 8, !tbaa !9
  store ptr %13, ptr %7, align 8, !tbaa !29
  call void @llvm.lifetime.start.p0(i64 8, ptr %8) #13
  %14 = call ptr @av_crc_get_table(i32 noundef 4)
  store ptr %14, ptr %8, align 8, !tbaa !54
  call void @llvm.lifetime.start.p0(i64 4, ptr %9) #13
  store i32 -1, ptr %9, align 4, !tbaa !50
  %15 = load ptr, ptr %4, align 8, !tbaa !4
  %16 = getelementptr inbounds nuw %struct.AVCodecContext, ptr %15, i32 0, i32 4
  %17 = load i32, ptr %16, align 8, !tbaa !160
  %18 = icmp eq i32 %17, 61
  br i1 %18, label %24, label %19

19:                                               ; preds = %3
  %20 = load ptr, ptr %4, align 8, !tbaa !4
  %21 = getelementptr inbounds nuw %struct.AVCodecContext, ptr %20, i32 0, i32 146
  %22 = load i64, ptr %21, align 8, !tbaa !68
  %23 = icmp eq i64 %22, 0
  br i1 %23, label %24, label %29

24:                                               ; preds = %19, %3
  %25 = load ptr, ptr %7, align 8, !tbaa !29
  %26 = getelementptr inbounds nuw %struct.PNGEncContext, ptr %25, i32 0, i32 2
  %27 = load ptr, ptr %5, align 8, !tbaa !67
  %28 = load i32, ptr %6, align 4, !tbaa !50
  call void @png_write_chunk(ptr noundef %26, i32 noundef 1413563465, ptr noundef %27, i32 noundef %28)
  store i32 1, ptr %10, align 4
  br label %74

29:                                               ; preds = %19
  %30 = load ptr, ptr %7, align 8, !tbaa !29
  %31 = getelementptr inbounds nuw %struct.PNGEncContext, ptr %30, i32 0, i32 2
  %32 = load i32, ptr %6, align 4, !tbaa !50
  %33 = add nsw i32 %32, 4
  call void @bytestream_put_be32(ptr noundef %31, i32 noundef %33)
  %34 = load ptr, ptr %7, align 8, !tbaa !29
  %35 = getelementptr inbounds nuw %struct.PNGEncContext, ptr %34, i32 0, i32 2
  call void @bytestream_put_be32(ptr noundef %35, i32 noundef 1717846356)
  %36 = load ptr, ptr %7, align 8, !tbaa !29
  %37 = getelementptr inbounds nuw %struct.PNGEncContext, ptr %36, i32 0, i32 2
  %38 = load ptr, ptr %7, align 8, !tbaa !29
  %39 = getelementptr inbounds nuw %struct.PNGEncContext, ptr %38, i32 0, i32 15
  %40 = load i32, ptr %39, align 4, !tbaa !82
  call void @bytestream_put_be32(ptr noundef %37, i32 noundef %40)
  %41 = load ptr, ptr %8, align 8, !tbaa !54
  %42 = load i32, ptr %9, align 4, !tbaa !50
  %43 = load ptr, ptr %7, align 8, !tbaa !29
  %44 = getelementptr inbounds nuw %struct.PNGEncContext, ptr %43, i32 0, i32 2
  %45 = load ptr, ptr %44, align 8, !tbaa !60
  %46 = getelementptr inbounds i8, ptr %45, i64 -8
  %47 = call i32 @av_crc(ptr noundef %41, i32 noundef %42, ptr noundef %46, i64 noundef 8) #15
  store i32 %47, ptr %9, align 4, !tbaa !50
  %48 = load ptr, ptr %8, align 8, !tbaa !54
  %49 = load i32, ptr %9, align 4, !tbaa !50
  %50 = load ptr, ptr %5, align 8, !tbaa !67
  %51 = load i32, ptr %6, align 4, !tbaa !50
  %52 = sext i32 %51 to i64
  %53 = call i32 @av_crc(ptr noundef %48, i32 noundef %49, ptr noundef %50, i64 noundef %52) #15
  store i32 %53, ptr %9, align 4, !tbaa !50
  %54 = load ptr, ptr %7, align 8, !tbaa !29
  %55 = getelementptr inbounds nuw %struct.PNGEncContext, ptr %54, i32 0, i32 2
  %56 = load ptr, ptr %55, align 8, !tbaa !60
  %57 = load ptr, ptr %5, align 8, !tbaa !67
  %58 = load i32, ptr %6, align 4, !tbaa !50
  %59 = sext i32 %58 to i64
  call void @llvm.memcpy.p0.p0.i64(ptr align 1 %56, ptr align 1 %57, i64 %59, i1 false)
  %60 = load i32, ptr %6, align 4, !tbaa !50
  %61 = load ptr, ptr %7, align 8, !tbaa !29
  %62 = getelementptr inbounds nuw %struct.PNGEncContext, ptr %61, i32 0, i32 2
  %63 = load ptr, ptr %62, align 8, !tbaa !60
  %64 = sext i32 %60 to i64
  %65 = getelementptr inbounds i8, ptr %63, i64 %64
  store ptr %65, ptr %62, align 8, !tbaa !60
  %66 = load ptr, ptr %7, align 8, !tbaa !29
  %67 = getelementptr inbounds nuw %struct.PNGEncContext, ptr %66, i32 0, i32 2
  %68 = load i32, ptr %9, align 4, !tbaa !50
  %69 = xor i32 %68, -1
  call void @bytestream_put_be32(ptr noundef %67, i32 noundef %69)
  %70 = load ptr, ptr %7, align 8, !tbaa !29
  %71 = getelementptr inbounds nuw %struct.PNGEncContext, ptr %70, i32 0, i32 15
  %72 = load i32, ptr %71, align 4, !tbaa !82
  %73 = add i32 %72, 1
  store i32 %73, ptr %71, align 4, !tbaa !82
  store i32 0, ptr %10, align 4
  br label %74

74:                                               ; preds = %29, %24
  call void @llvm.lifetime.end.p0(i64 4, ptr %9) #13
  call void @llvm.lifetime.end.p0(i64 8, ptr %8) #13
  call void @llvm.lifetime.end.p0(i64 8, ptr %7) #13
  %75 = load i32, ptr %10, align 4
  switch i32 %75, label %77 [
    i32 0, label %76
    i32 1, label %76
  ]

76:                                               ; preds = %74, %74
  ret void

77:                                               ; preds = %74
  unreachable
}