; Function Attrs: nounwind uwtable
define internal fastcc void @png_write_image_data(ptr noundef readonly captures(none) %0, ptr noundef %1, i32 noundef range(i32 1, -2147483648) %2) unnamed_addr #1 {
  %4 = alloca [4 x i8], align 4
  %5 = getelementptr inbounds nuw i8, ptr %0, i64 32
  %6 = load ptr, ptr %5, align 8, !tbaa !4
  %7 = tail call ptr @av_crc_get_table(i32 noundef 4) #11
  %8 = getelementptr inbounds nuw i8, ptr %0, i64 24
  %9 = load i32, ptr %8, align 8, !tbaa !139
  %10 = icmp eq i32 %9, 61
  br i1 %10, label %15, label %11

11:                                               ; preds = %3
  %12 = getelementptr inbounds nuw i8, ptr %0, i64 824
  %13 = load i64, ptr %12, align 8, !tbaa !62
  %14 = icmp eq i64 %13, 0
  br i1 %14, label %15, label %34

15:                                               ; preds = %11, %3
  %16 = getelementptr inbounds nuw i8, ptr %6, i64 32
  %17 = tail call ptr @av_crc_get_table(i32 noundef 4) #11
  call void @llvm.lifetime.start.p0(i64 4, ptr nonnull %4) #11
  %18 = tail call i32 @llvm.bswap.i32(i32 %2)
  %19 = load ptr, ptr %16, align 8, !tbaa !58
  store i32 %18, ptr %19, align 1, !tbaa !57
  %20 = load ptr, ptr %16, align 8, !tbaa !58
  %21 = getelementptr inbounds nuw i8, ptr %20, i64 4
  store ptr %21, ptr %16, align 8, !tbaa !58
  store i32 1413563465, ptr %4, align 4, !tbaa !57
  %22 = call i32 @av_crc(ptr noundef %17, i32 noundef -1, ptr noundef nonnull %4, i64 noundef 4) #12
  store i32 1413563465, ptr %21, align 1, !tbaa !57
  %23 = load ptr, ptr %16, align 8, !tbaa !58
  %24 = getelementptr inbounds nuw i8, ptr %23, i64 4
  store ptr %24, ptr %16, align 8, !tbaa !58
  %25 = zext nneg i32 %2 to i64
  %26 = call i32 @av_crc(ptr noundef %17, i32 noundef %22, ptr noundef %1, i64 noundef %25) #12
  %.not.i = icmp eq ptr %24, %1
  br i1 %.not.i, label %png_write_chunk.exit, label %27

27:                                               ; preds = %15
  tail call void @llvm.memcpy.p0.p0.i64(ptr noundef nonnull align 1 dereferenceable(1) %24, ptr noundef nonnull align 1 dereferenceable(1) %1, i64 %25, i1 false)
  %.pre.i = load ptr, ptr %16, align 8, !tbaa !58
  br label %png_write_chunk.exit

png_write_chunk.exit:                             ; preds = %15, %27
  %28 = phi ptr [ %.pre.i, %27 ], [ %24, %15 ]
  %29 = getelementptr inbounds nuw i8, ptr %28, i64 %25
  store ptr %29, ptr %16, align 8, !tbaa !58
  %30 = xor i32 %26, -1
  %31 = call i32 @llvm.bswap.i32(i32 %30)
  store i32 %31, ptr %29, align 1, !tbaa !57
  %32 = load ptr, ptr %16, align 8, !tbaa !58
  %33 = getelementptr inbounds nuw i8, ptr %32, i64 4
  store ptr %33, ptr %16, align 8, !tbaa !58
  call void @llvm.lifetime.end.p0(i64 4, ptr nonnull %4) #11
  br label %60

34:                                               ; preds = %11
  %35 = getelementptr inbounds nuw i8, ptr %6, i64 32
  %36 = add nuw nsw i32 %2, 4
  %37 = tail call i32 @llvm.bswap.i32(i32 %36)
  %38 = load ptr, ptr %35, align 8, !tbaa !58
  store i32 %37, ptr %38, align 1, !tbaa !57
  %39 = load ptr, ptr %35, align 8, !tbaa !58
  %40 = getelementptr inbounds nuw i8, ptr %39, i64 4
  store ptr %40, ptr %35, align 8, !tbaa !58
  store i32 1413571686, ptr %40, align 1, !tbaa !57
  %41 = load ptr, ptr %35, align 8, !tbaa !58
  %42 = getelementptr inbounds nuw i8, ptr %41, i64 4
  store ptr %42, ptr %35, align 8, !tbaa !58
  %43 = getelementptr inbounds nuw i8, ptr %6, i64 4308
  %44 = load i32, ptr %43, align 4, !tbaa !75
  %45 = tail call i32 @llvm.bswap.i32(i32 %44)
  store i32 %45, ptr %42, align 1, !tbaa !57
  %46 = load ptr, ptr %35, align 8, !tbaa !58
  %47 = getelementptr inbounds nuw i8, ptr %46, i64 4
  store ptr %47, ptr %35, align 8, !tbaa !58
  %48 = getelementptr inbounds i8, ptr %46, i64 -4
  %49 = tail call i32 @av_crc(ptr noundef %7, i32 noundef -1, ptr noundef nonnull %48, i64 noundef 8) #12
  %50 = zext nneg i32 %2 to i64
  %51 = tail call i32 @av_crc(ptr noundef %7, i32 noundef %49, ptr noundef %1, i64 noundef %50) #12
  tail call void @llvm.memcpy.p0.p0.i64(ptr noundef nonnull align 1 dereferenceable(1) %47, ptr noundef nonnull align 1 dereferenceable(1) %1, i64 %50, i1 false)
  %52 = load ptr, ptr %35, align 8, !tbaa !53
  %53 = getelementptr inbounds nuw i8, ptr %52, i64 %50
  store ptr %53, ptr %35, align 8, !tbaa !53
  %54 = xor i32 %51, -1
  %55 = tail call i32 @llvm.bswap.i32(i32 %54)
  store i32 %55, ptr %53, align 1, !tbaa !57
  %56 = load ptr, ptr %35, align 8, !tbaa !58
  %57 = getelementptr inbounds nuw i8, ptr %56, i64 4
  store ptr %57, ptr %35, align 8, !tbaa !58
  %58 = load i32, ptr %43, align 4, !tbaa !75
  %59 = add i32 %58, 1
  store i32 %59, ptr %43, align 4, !tbaa !75
  br label %60

60:                                               ; preds = %34, %png_write_chunk.exit
  ret void
}